; Function Attrs: mustprogress nounwind uwtable
define hidden void @_ZN6google8protobuf11FileOptionsD2Ev(ptr noundef nonnull align 8 dereferenceable(168) %0) unnamed_addr #6 align 2 personality ptr @__gxx_personality_v0 {
  %2 = getelementptr inbounds nuw i8, ptr %0, i64 8
  %3 = load i64, ptr %2, align 8, !tbaa !8
  %4 = and i64 %3, 1
  %.not.i = icmp eq i64 %4, 0
  %5 = and i64 %3, -4
  %6 = inttoptr i64 %5 to ptr
  br i1 %.not.i, label %_ZNK6google8protobuf11MessageLite21GetArenaForAllocationEv.exit, label %7, !prof !19

7:                                                ; preds = %1
  %8 = load ptr, ptr %6, align 8, !tbaa !20
  br label %_ZNK6google8protobuf11MessageLite21GetArenaForAllocationEv.exit

_ZNK6google8protobuf11MessageLite21GetArenaForAllocationEv.exit: ; preds = %7, %1
  %.0.i.i = phi ptr [ %8, %7 ], [ %6, %1 ]
  %.not = icmp eq ptr %.0.i.i, null
  br i1 %.not, label %9, label %_ZN6google8protobuf8internal16InternalMetadata6DeleteINS0_15UnknownFieldSetEEEvv.exit

9:                                                ; preds = %_ZNK6google8protobuf11MessageLite21GetArenaForAllocationEv.exit
  invoke void @_ZN6google8protobuf11FileOptions10SharedDtorEv(ptr noundef nonnull align 8 dereferenceable(168) %0)
          to label %10 unwind label %35

10:                                               ; preds = %9
  %11 = load i64, ptr %2, align 8, !tbaa !8
  %12 = and i64 %11, 1
  %.not.i1 = icmp eq i64 %12, 0
  br i1 %.not.i1, label %_ZN6google8protobuf8internal16InternalMetadata6DeleteINS0_15UnknownFieldSetEEEvv.exit, label %13

13:                                               ; preds = %10
  invoke void @_ZN6google8protobuf8internal16InternalMetadata21DeleteOutOfLineHelperINS0_15UnknownFieldSetEEEvv(ptr noundef nonnull align 8 dereferenceable(8) %2)
          to label %_ZN6google8protobuf8internal16InternalMetadata6DeleteINS0_15UnknownFieldSetEEEvv.exit unwind label %35

_ZN6google8protobuf8internal16InternalMetadata6DeleteINS0_15UnknownFieldSetEEEvv.exit: ; preds = %10, %13, %_ZNK6google8protobuf11MessageLite21GetArenaForAllocationEv.exit
  %14 = getelementptr inbounds nuw i8, ptr %0, i64 48
  %15 = getelementptr inbounds nuw i8, ptr %0, i64 64
  %16 = load ptr, ptr %15, align 8, !tbaa !18
  %.not.i.i = icmp ne ptr %16, null
  %17 = load ptr, ptr %14, align 8
  %18 = icmp eq ptr %17, null
  %19 = select i1 %.not.i.i, i1 %18, i1 false
  br i1 %19, label %20, label %_ZN6google8protobuf16RepeatedPtrFieldINS0_19UninterpretedOptionEED2Ev.exit

20:                                               ; preds = %_ZN6google8protobuf8internal16InternalMetadata6DeleteINS0_15UnknownFieldSetEEEvv.exit
  invoke void @_ZN6google8protobuf8internal20RepeatedPtrFieldBase13DestroyProtosEv(ptr noundef nonnull align 8 dereferenceable(24) %14)
          to label %_ZN6google8protobuf16RepeatedPtrFieldINS0_19UninterpretedOptionEED2Ev.exit unwind label %21

21:                                               ; preds = %20
  %22 = landingpad { ptr, i32 }
          catch ptr null
  %23 = extractvalue { ptr, i32 } %22, 0
  tail call void @__clang_call_terminate(ptr %23) #23
  unreachable

_ZN6google8protobuf16RepeatedPtrFieldINS0_19UninterpretedOptionEED2Ev.exit: ; preds = %_ZN6google8protobuf8internal16InternalMetadata6DeleteINS0_15UnknownFieldSetEEEvv.exit, %20
  %24 = getelementptr inbounds nuw i8, ptr %0, i64 16
  tail call void @_ZN6google8protobuf8internal12ExtensionSetD1Ev(ptr noundef nonnull align 8 dereferenceable(24) %24) #24
  store ptr getelementptr inbounds nuw inrange(-16, 104) (i8, ptr @_ZTVN6google8protobuf11MessageLiteE, i64 16), ptr %0, align 8, !tbaa !11
  %25 = load i64, ptr %2, align 8, !tbaa !8
  %26 = and i64 %25, 2
  %.not.i.i2 = icmp eq i64 %26, 0
  br i1 %.not.i.i2, label %_ZN6google8protobuf11MessageLiteD2Ev.exit, label %27

27:                                               ; preds = %_ZN6google8protobuf16RepeatedPtrFieldINS0_19UninterpretedOptionEED2Ev.exit
  %28 = and i64 %25, 1
  %.not1.i.i = icmp eq i64 %28, 0
  %29 = and i64 %25, -4
  %30 = inttoptr i64 %29 to ptr
  br i1 %.not1.i.i, label %_ZNK6google8protobuf8internal16InternalMetadata5arenaEv.exit.i.i, label %31, !prof !19

31:                                               ; preds = %27
  %32 = load ptr, ptr %30, align 8, !tbaa !20
  br label %_ZNK6google8protobuf8internal16InternalMetadata5arenaEv.exit.i.i

_ZNK6google8protobuf8internal16InternalMetadata5arenaEv.exit.i.i: ; preds = %31, %27
  %.0.i.i.i = phi ptr [ %32, %31 ], [ %30, %27 ]
  %33 = icmp eq ptr %.0.i.i.i, null
  br i1 %33, label %_ZN6google8protobuf11MessageLiteD2Ev.exit, label %34

34:                                               ; preds = %_ZNK6google8protobuf8internal16InternalMetadata5arenaEv.exit.i.i
  tail call void @_ZN6google8protobuf8internal15ThreadSafeArenaD1Ev(ptr noundef nonnull align 8 dereferenceable(32) %.0.i.i.i) #24
  tail call void @_ZdlPv(ptr noundef nonnull %.0.i.i.i) #25
  br label %_ZN6google8protobuf11MessageLiteD2Ev.exit

_ZN6google8protobuf11MessageLiteD2Ev.exit:        ; preds = %_ZN6google8protobuf16RepeatedPtrFieldINS0_19UninterpretedOptionEED2Ev.exit, %_ZNK6google8protobuf8internal16InternalMetadata5arenaEv.exit.i.i, %34
  ret void

35:                                               ; preds = %13, %9
  %36 = landingpad { ptr, i32 }
          catch ptr null
  %37 = extractvalue { ptr, i32 } %36, 0
  tail call void @__clang_call_terminate(ptr %37) #23
  unreachable
}